target datalayout = "e-m:e-p270:32:32-p271:32:32-p272:64:64-i64:64-i128:128-f80:128-n8:16:32:64-S128"
target triple = "x86_64-pc-linux-gnu"

%struct.Res6_Man_t_ = type { i32, i32, i32, i32, i32, i32, %struct.Vec_Wrd_t_, %struct.Vec_Wrd_t_, ptr, ptr, %struct.Vec_Int_t_, %struct.Vec_Int_t_, %struct.Vec_Int_t_, %struct.Vec_Int_t_ }
%struct.Vec_Wrd_t_ = type { i32, i32, ptr }
%struct.Vec_Int_t_ = type { i32, i32, ptr }

; Function Attrs: inlinehint nounwind uwtable
define internal void @Vec_WrdGrow(ptr noundef %0, i32 noundef %1) #2 {
  %3 = alloca ptr, align 8
  %4 = alloca i32, align 4
  store ptr %0, ptr %3, align 8, !tbaa !52
  store i32 %1, ptr %4, align 4, !tbaa !19
  %5 = load ptr, ptr %3, align 8, !tbaa !52
  %6 = getelementptr inbounds nuw %struct.Vec_Wrd_t_, ptr %5, i32 0, i32 0
  %7 = load i32, ptr %6, align 8, !tbaa !99
  %8 = load i32, ptr %4, align 4, !tbaa !19
  %9 = icmp sge i32 %7, %8
  br i1 %9, label %10, label %11

10:                                               ; preds = %2
  br label %36

11:                                               ; preds = %2
  %12 = load ptr, ptr %3, align 8, !tbaa !52
  %13 = getelementptr inbounds nuw %struct.Vec_Wrd_t_, ptr %12, i32 0, i32 2
  %14 = load ptr, ptr %13, align 8, !tbaa !53
  %15 = icmp ne ptr %14, null
  br i1 %15, label %16, label %24

16:                                               ; preds = %11
  %17 = load ptr, ptr %3, align 8, !tbaa !52
  %18 = getelementptr inbounds nuw %struct.Vec_Wrd_t_, ptr %17, i32 0, i32 2
  %19 = load ptr, ptr %18, align 8, !tbaa !53
  %20 = load i32, ptr %4, align 4, !tbaa !19
  %21 = sext i32 %20 to i64
  %22 = mul i64 8, %21
  %23 = call ptr @realloc(ptr noundef %19, i64 noundef %22) #15
  br label %29

24:                                               ; preds = %11
  %25 = load i32, ptr %4, align 4, !tbaa !19
  %26 = sext i32 %25 to i64
  %27 = mul i64 8, %26
  %28 = call noalias ptr @malloc(i64 noundef %27) #13
  br label %29

29:                                               ; preds = %24, %16
  %30 = phi ptr [ %23, %16 ], [ %28, %24 ]
  %31 = load ptr, ptr %3, align 8, !tbaa !52
  %32 = getelementptr inbounds nuw %struct.Vec_Wrd_t_, ptr %31, i32 0, i32 2
  store ptr %30, ptr %32, align 8, !tbaa !53
  %33 = load i32, ptr %4, align 4, !tbaa !19
  %34 = load ptr, ptr %3, align 8, !tbaa !52
  %35 = getelementptr inbounds nuw %struct.Vec_Wrd_t_, ptr %34, i32 0, i32 0
  store i32 %33, ptr %35, align 8, !tbaa !99
  br label %36

36:                                               ; preds = %29, %10
  ret void
}

; Function Attrs: inlinehint nounwind uwtable
define internal void @Vec_IntGrow(ptr noundef %0, i32 noundef %1) #2 {
  %3 = alloca ptr, align 8
  %4 = alloca i32, align 4
  store ptr %0, ptr %3, align 8, !tbaa !54
  store i32 %1, ptr %4, align 4, !tbaa !19
  %5 = load ptr, ptr %3, align 8, !tbaa !54
  %6 = getelementptr inbounds nuw %struct.Vec_Int_t_, ptr %5, i32 0, i32 0
  %7 = load i32, ptr %6, align 8, !tbaa !57
  %8 = load i32, ptr %4, align 4, !tbaa !19
  %9 = icmp sge i32 %7, %8
  br i1 %9, label %10, label %11

10:                                               ; preds = %2
  br label %36

11:                                               ; preds = %2
  %12 = load ptr, ptr %3, align 8, !tbaa !54
  %13 = getelementptr inbounds nuw %struct.Vec_Int_t_, ptr %12, i32 0, i32 2
  %14 = load ptr, ptr %13, align 8, !tbaa !56
  %15 = icmp ne ptr %14, null
  br i1 %15, label %16, label %24

16:                                               ; preds = %11
  %17 = load ptr, ptr %3, align 8, !tbaa !54
  %18 = getelementptr inbounds nuw %struct.Vec_Int_t_, ptr %17, i32 0, i32 2
  %19 = load ptr, ptr %18, align 8, !tbaa !56
  %20 = load i32, ptr %4, align 4, !tbaa !19
  %21 = sext i32 %20 to i64
  %22 = mul i64 4, %21
  %23 = call ptr @realloc(ptr noundef %19, i64 noundef %22) #15
  br label %29

24:                                               ; preds = %11
  %25 = load i32, ptr %4, align 4, !tbaa !19
  %26 = sext i32 %25 to i64
  %27 = mul i64 4, %26
  %28 = call noalias ptr @malloc(i64 noundef %27) #13
  br label %29

29:                                               ; preds = %24, %16
  %30 = phi ptr [ %23, %16 ], [ %28, %24 ]
  %31 = load ptr, ptr %3, align 8, !tbaa !54
  %32 = getelementptr inbounds nuw %struct.Vec_Int_t_, ptr %31, i32 0, i32 2
  store ptr %30, ptr %32, align 8, !tbaa !56
  %33 = load i32, ptr %4, align 4, !tbaa !19
  %34 = load ptr, ptr %3, align 8, !tbaa !54
  %35 = getelementptr inbounds nuw %struct.Vec_Int_t_, ptr %34, i32 0, i32 0
  store i32 %33, ptr %35, align 8, !tbaa !57
  br label %36

36:                                               ; preds = %29, %10
  ret void
}

; Function Attrs: inlinehint nounwind uwtable
define internal void @Abc_TtFill(ptr noundef %0, i32 noundef %1) #2 {
  %3 = alloca ptr, align 8
  %4 = alloca i32, align 4
  %5 = alloca i32, align 4
  store ptr %0, ptr %3, align 8, !tbaa !28
  store i32 %1, ptr %4, align 4, !tbaa !19
  call void @llvm.lifetime.start.p0(i64 4, ptr %5) #11
  store i32 0, ptr %5, align 4, !tbaa !19
  br label %6

6:                                                ; preds = %15, %2
  %7 = load i32, ptr %5, align 4, !tbaa !19
  %8 = load i32, ptr %4, align 4, !tbaa !19
  %9 = icmp slt i32 %7, %8
  br i1 %9, label %10, label %18

10:                                               ; preds = %6
  %11 = load ptr, ptr %3, align 8, !tbaa !28
  %12 = load i32, ptr %5, align 4, !tbaa !19
  %13 = sext i32 %12 to i64
  %14 = getelementptr inbounds i64, ptr %11, i64 %13
  store i64 -1, ptr %14, align 8, !tbaa !48
  br label %15

15:                                               ; preds = %10
  %16 = load i32, ptr %5, align 4, !tbaa !19
  %17 = add nsw i32 %16, 1
  store i32 %17, ptr %5, align 4, !tbaa !19
  br label %6, !llvm.loop !101

18:                                               ; preds = %6
  call void @llvm.lifetime.end.p0(i64 4, ptr %5) #11
  ret void
}

; Function Attrs: inlinehint nounwind uwtable
define internal ptr @Vec_WrdEntryP(ptr noundef %0, i32 noundef %1) #2 {
  %3 = alloca ptr, align 8
  %4 = alloca i32, align 4
  store ptr %0, ptr %3, align 8, !tbaa !52
  store i32 %1, ptr %4, align 4, !tbaa !19
  %5 = load ptr, ptr %3, align 8, !tbaa !52
  %6 = getelementptr inbounds nuw %struct.Vec_Wrd_t_, ptr %5, i32 0, i32 2
  %7 = load ptr, ptr %6, align 8, !tbaa !53
  %8 = load i32, ptr %4, align 4, !tbaa !19
  %9 = sext i32 %8 to i64
  %10 = getelementptr inbounds i64, ptr %7, i64 %9
  ret ptr %10
}

; Function Attrs: inlinehint nounwind uwtable
define internal void @Vec_WrdFill(ptr noundef %0, i32 noundef %1, i64 noundef %2) #2 {
  %4 = alloca ptr, align 8
  %5 = alloca i32, align 4
  %6 = alloca i64, align 8
  %7 = alloca i32, align 4
  store ptr %0, ptr %4, align 8, !tbaa !52
  store i32 %1, ptr %5, align 4, !tbaa !19
  store i64 %2, ptr %6, align 8, !tbaa !48
  call void @llvm.lifetime.start.p0(i64 4, ptr %7) #11
  %8 = load ptr, ptr %4, align 8, !tbaa !52
  %9 = load i32, ptr %5, align 4, !tbaa !19
  call void @Vec_WrdGrow(ptr noundef %8, i32 noundef %9)
  store i32 0, ptr %7, align 4, !tbaa !19
  br label %10

10:                                               ; preds = %22, %3
  %11 = load i32, ptr %7, align 4, !tbaa !19
  %12 = load i32, ptr %5, align 4, !tbaa !19
  %13 = icmp slt i32 %11, %12
  br i1 %13, label %14, label %25

14:                                               ; preds = %10
  %15 = load i64, ptr %6, align 8, !tbaa !48
  %16 = load ptr, ptr %4, align 8, !tbaa !52
  %17 = getelementptr inbounds nuw %struct.Vec_Wrd_t_, ptr %16, i32 0, i32 2
  %18 = load ptr, ptr %17, align 8, !tbaa !53
  %19 = load i32, ptr %7, align 4, !tbaa !19
  %20 = sext i32 %19 to i64
  %21 = getelementptr inbounds i64, ptr %18, i64 %20
  store i64 %15, ptr %21, align 8, !tbaa !48
  br label %22

22:                                               ; preds = %14
  %23 = load i32, ptr %7, align 4, !tbaa !19
  %24 = add nsw i32 %23, 1
  store i32 %24, ptr %7, align 4, !tbaa !19
  br label %10, !llvm.loop !100

25:                                               ; preds = %10
  %26 = load i32, ptr %5, align 4, !tbaa !19
  %27 = load ptr, ptr %4, align 8, !tbaa !52
  %28 = getelementptr inbounds nuw %struct.Vec_Wrd_t_, ptr %27, i32 0, i32 1
  store i32 %26, ptr %28, align 4, !tbaa !98
  call void @llvm.lifetime.end.p0(i64 4, ptr %7) #11
  ret void
}

; Function Attrs: inlinehint nounwind uwtable
define internal ptr @Res6_ManStart(i32 noundef %0, i32 noundef %1, i32 noundef %2, i32 noundef %3) #2 {
  %5 = alloca i32, align 4
  %6 = alloca i32, align 4
  %7 = alloca i32, align 4
  %8 = alloca i32, align 4
  %9 = alloca ptr, align 8
  %10 = alloca i32, align 4
  store i32 %0, ptr %5, align 4, !tbaa !19
  store i32 %1, ptr %6, align 4, !tbaa !19
  store i32 %2, ptr %7, align 4, !tbaa !19
  store i32 %3, ptr %8, align 4, !tbaa !19
  call void @llvm.lifetime.start.p0(i64 8, ptr %9) #11
  call void @llvm.lifetime.start.p0(i64 4, ptr %10) #11
  %11 = call noalias ptr @calloc(i64 noundef 1, i64 noundef 136) #12
  store ptr %11, ptr %9, align 8, !tbaa !17
  %12 = load i32, ptr %5, align 4, !tbaa !19
  %13 = load ptr, ptr %9, align 8, !tbaa !17
  %14 = getelementptr inbounds nuw %struct.Res6_Man_t_, ptr %13, i32 0, i32 0
  store i32 %12, ptr %14, align 8, !tbaa !42
  %15 = load i32, ptr %5, align 4, !tbaa !19
  %16 = add nsw i32 1, %15
  %17 = load i32, ptr %6, align 4, !tbaa !19
  %18 = add nsw i32 %16, %17
  %19 = load ptr, ptr %9, align 8, !tbaa !17
  %20 = getelementptr inbounds nuw %struct.Res6_Man_t_, ptr %19, i32 0, i32 1
  store i32 %18, ptr %20, align 4, !tbaa !20
  %21 = load ptr, ptr %9, align 8, !tbaa !17
  %22 = getelementptr inbounds nuw %struct.Res6_Man_t_, ptr %21, i32 0, i32 1
  %23 = load i32, ptr %22, align 4, !tbaa !20
  %24 = add nsw i32 %23, 100
  %25 = load ptr, ptr %9, align 8, !tbaa !17
  %26 = getelementptr inbounds nuw %struct.Res6_Man_t_, ptr %25, i32 0, i32 2
  store i32 %24, ptr %26, align 8, !tbaa !43
  %27 = load i32, ptr %7, align 4, !tbaa !19
  %28 = load ptr, ptr %9, align 8, !tbaa !17
  %29 = getelementptr inbounds nuw %struct.Res6_Man_t_, ptr %28, i32 0, i32 3
  store i32 %27, ptr %29, align 4, !tbaa !34
  %30 = load i32, ptr %8, align 4, !tbaa !19
  %31 = load ptr, ptr %9, align 8, !tbaa !17
  %32 = getelementptr inbounds nuw %struct.Res6_Man_t_, ptr %31, i32 0, i32 4
  store i32 %30, ptr %32, align 8, !tbaa !44
  %33 = load i32, ptr %8, align 4, !tbaa !19
  %34 = add nsw i32 %33, 63
  %35 = sdiv i32 %34, 64
  %36 = load ptr, ptr %9, align 8, !tbaa !17
  %37 = getelementptr inbounds nuw %struct.Res6_Man_t_, ptr %36, i32 0, i32 5
  store i32 %35, ptr %37, align 4, !tbaa !45
  %38 = load ptr, ptr %9, align 8, !tbaa !17
  %39 = getelementptr inbounds nuw %struct.Res6_Man_t_, ptr %38, i32 0, i32 6
  %40 = load ptr, ptr %9, align 8, !tbaa !17
  %41 = getelementptr inbounds nuw %struct.Res6_Man_t_, ptr %40, i32 0, i32 2
  %42 = load i32, ptr %41, align 8, !tbaa !43
  %43 = mul nsw i32 2, %42
  %44 = load ptr, ptr %9, align 8, !tbaa !17
  %45 = getelementptr inbounds nuw %struct.Res6_Man_t_, ptr %44, i32 0, i32 5
  %46 = load i32, ptr %45, align 4, !tbaa !45
  %47 = mul nsw i32 %43, %46
  call void @Vec_WrdFill(ptr noundef %39, i32 noundef %47, i64 noundef 0)
  %48 = load ptr, ptr %9, align 8, !tbaa !17
  %49 = getelementptr inbounds nuw %struct.Res6_Man_t_, ptr %48, i32 0, i32 7
  %50 = load i32, ptr %7, align 4, !tbaa !19
  %51 = shl i32 1, %50
  %52 = load ptr, ptr %9, align 8, !tbaa !17
  %53 = getelementptr inbounds nuw %struct.Res6_Man_t_, ptr %52, i32 0, i32 5
  %54 = load i32, ptr %53, align 4, !tbaa !45
  %55 = mul nsw i32 %51, %54
  call void @Vec_WrdFill(ptr noundef %49, i32 noundef %55, i64 noundef 0)
  %56 = load ptr, ptr %9, align 8, !tbaa !17
  %57 = getelementptr inbounds nuw %struct.Res6_Man_t_, ptr %56, i32 0, i32 2
  %58 = load i32, ptr %57, align 8, !tbaa !43
  %59 = mul nsw i32 2, %58
  %60 = sext i32 %59 to i64
  %61 = call noalias ptr @calloc(i64 noundef %60, i64 noundef 8) #12
  %62 = load ptr, ptr %9, align 8, !tbaa !17
  %63 = getelementptr inbounds nuw %struct.Res6_Man_t_, ptr %62, i32 0, i32 8
  store ptr %61, ptr %63, align 8, !tbaa !27
  %64 = load i32, ptr %7, align 4, !tbaa !19
  %65 = shl i32 1, %64
  %66 = sext i32 %65 to i64
  %67 = call noalias ptr @calloc(i64 noundef %66, i64 noundef 8) #12
  %68 = load ptr, ptr %9, align 8, !tbaa !17
  %69 = getelementptr inbounds nuw %struct.Res6_Man_t_, ptr %68, i32 0, i32 9
  store ptr %67, ptr %69, align 8, !tbaa !35
  store i32 0, ptr %10, align 4, !tbaa !19
  br label %70

70:                                               ; preds = %92, %4
  %71 = load i32, ptr %10, align 4, !tbaa !19
  %72 = load ptr, ptr %9, align 8, !tbaa !17
  %73 = getelementptr inbounds nuw %struct.Res6_Man_t_, ptr %72, i32 0, i32 2
  %74 = load i32, ptr %73, align 8, !tbaa !43
  %75 = mul nsw i32 2, %74
  %76 = icmp slt i32 %71, %75
  br i1 %76, label %77, label %95

77:                                               ; preds = %70
  %78 = load ptr, ptr %9, align 8, !tbaa !17
  %79 = getelementptr inbounds nuw %struct.Res6_Man_t_, ptr %78, i32 0, i32 6
  %80 = load i32, ptr %10, align 4, !tbaa !19
  %81 = load ptr, ptr %9, align 8, !tbaa !17
  %82 = getelementptr inbounds nuw %struct.Res6_Man_t_, ptr %81, i32 0, i32 5
  %83 = load i32, ptr %82, align 4, !tbaa !45
  %84 = mul nsw i32 %80, %83
  %85 = call ptr @Vec_WrdEntryP(ptr noundef %79, i32 noundef %84)
  %86 = load ptr, ptr %9, align 8, !tbaa !17
  %87 = getelementptr inbounds nuw %struct.Res6_Man_t_, ptr %86, i32 0, i32 8
  %88 = load ptr, ptr %87, align 8, !tbaa !27
  %89 = load i32, ptr %10, align 4, !tbaa !19
  %90 = sext i32 %89 to i64
  %91 = getelementptr inbounds ptr, ptr %88, i64 %90
  store ptr %85, ptr %91, align 8, !tbaa !28
  br label %92

92:                                               ; preds = %77
  %93 = load i32, ptr %10, align 4, !tbaa !19
  %94 = add nsw i32 %93, 1
  store i32 %94, ptr %10, align 4, !tbaa !19
  br label %70, !llvm.loop !46

95:                                               ; preds = %70
  store i32 0, ptr %10, align 4, !tbaa !19
  br label %96

96:                                               ; preds = %116, %95
  %97 = load i32, ptr %10, align 4, !tbaa !19
  %98 = load i32, ptr %7, align 4, !tbaa !19
  %99 = shl i32 1, %98
  %100 = icmp slt i32 %97, %99
  br i1 %100, label %101, label %119

101:                                              ; preds = %96
  %102 = load ptr, ptr %9, align 8, !tbaa !17
  %103 = getelementptr inbounds nuw %struct.Res6_Man_t_, ptr %102, i32 0, i32 7
  %104 = load i32, ptr %10, align 4, !tbaa !19
  %105 = load ptr, ptr %9, align 8, !tbaa !17
  %106 = getelementptr inbounds nuw %struct.Res6_Man_t_, ptr %105, i32 0, i32 5
  %107 = load i32, ptr %106, align 4, !tbaa !45
  %108 = mul nsw i32 %104, %107
  %109 = call ptr @Vec_WrdEntryP(ptr noundef %103, i32 noundef %108)
  %110 = load ptr, ptr %9, align 8, !tbaa !17
  %111 = getelementptr inbounds nuw %struct.Res6_Man_t_, ptr %110, i32 0, i32 9
  %112 = load ptr, ptr %111, align 8, !tbaa !35
  %113 = load i32, ptr %10, align 4, !tbaa !19
  %114 = sext i32 %113 to i64
  %115 = getelementptr inbounds ptr, ptr %112, i64 %114
  store ptr %109, ptr %115, align 8, !tbaa !28
  br label %116

116:                                              ; preds = %101
  %117 = load i32, ptr %10, align 4, !tbaa !19
  %118 = add nsw i32 %117, 1
  store i32 %118, ptr %10, align 4, !tbaa !19
  br label %96, !llvm.loop !47

119:                                              ; preds = %96
  %120 = load ptr, ptr %9, align 8, !tbaa !17
  %121 = getelementptr inbounds nuw %struct.Res6_Man_t_, ptr %120, i32 0, i32 8
  %122 = load ptr, ptr %121, align 8, !tbaa !27
  %123 = getelementptr inbounds ptr, ptr %122, i64 1
  %124 = load ptr, ptr %123, align 8, !tbaa !28
  %125 = load ptr, ptr %9, align 8, !tbaa !17
  %126 = getelementptr inbounds nuw %struct.Res6_Man_t_, ptr %125, i32 0, i32 5
  %127 = load i32, ptr %126, align 4, !tbaa !45
  call void @Abc_TtFill(ptr noundef %124, i32 noundef %127)
  %128 = load ptr, ptr %9, align 8, !tbaa !17
  %129 = getelementptr inbounds nuw %struct.Res6_Man_t_, ptr %128, i32 0, i32 10
  %130 = load i32, ptr %7, align 4, !tbaa !19
  %131 = add nsw i32 200, %130
  call void @Vec_IntGrow(ptr noundef %129, i32 noundef %131)
  %132 = load ptr, ptr %9, align 8, !tbaa !17
  %133 = getelementptr inbounds nuw %struct.Res6_Man_t_, ptr %132, i32 0, i32 11
  %134 = load i32, ptr %7, align 4, !tbaa !19
  %135 = add nsw i32 200, %134
  call void @Vec_IntGrow(ptr noundef %133, i32 noundef %135)
  %136 = load ptr, ptr %9, align 8, !tbaa !17
  %137 = getelementptr inbounds nuw %struct.Res6_Man_t_, ptr %136, i32 0, i32 12
  %138 = load i32, ptr %7, align 4, !tbaa !19
  %139 = add nsw i32 200, %138
  call void @Vec_IntGrow(ptr noundef %137, i32 noundef %139)
  %140 = load ptr, ptr %9, align 8, !tbaa !17
  call void @llvm.lifetime.end.p0(i64 4, ptr %10) #11
  call void @llvm.lifetime.end.p0(i64 8, ptr %9) #11
  ret ptr %140
}