; Function Attrs: inlinehint nofree nounwind memory(readwrite, argmem: write) uwtable
define internal fastcc noalias noundef ptr @Res6_ManStart(i32 noundef %0, i32 noundef %1, i32 noundef %2, i32 noundef %3) unnamed_addr #2 {
  %5 = tail call noalias dereferenceable_or_null(136) ptr @calloc(i64 noundef 1, i64 noundef 136) #22
  store i32 %0, ptr %5, align 8, !tbaa !53
  %6 = add nsw i32 %0, 1
  %7 = add nsw i32 %6, %1
  %8 = getelementptr inbounds nuw i8, ptr %5, i64 4
  store i32 %7, ptr %8, align 4, !tbaa !37
  %9 = add nsw i32 %7, 100
  %10 = getelementptr inbounds nuw i8, ptr %5, i64 8
  store i32 %9, ptr %10, align 8, !tbaa !54
  %11 = getelementptr inbounds nuw i8, ptr %5, i64 12
  store i32 %2, ptr %11, align 4, !tbaa !48
  %12 = getelementptr inbounds nuw i8, ptr %5, i64 16
  store i32 %3, ptr %12, align 8, !tbaa !55
  %13 = add nsw i32 %3, 63
  %14 = sdiv i32 %13, 64
  %15 = getelementptr inbounds nuw i8, ptr %5, i64 20
  store i32 %14, ptr %15, align 4, !tbaa !56
  %16 = shl nsw i32 %9, 1
  %17 = mul nsw i32 %14, %16
  %.not.i.i = icmp sgt i32 %17, 0
  br i1 %.not.i.i, label %.lr.ph.i, label %Vec_WrdFill.exit

.lr.ph.i:                                         ; preds = %4
  %18 = getelementptr inbounds nuw i8, ptr %5, i64 24
  %19 = getelementptr inbounds nuw i8, ptr %5, i64 32
  %20 = zext nneg i32 %17 to i64
  %21 = shl nuw nsw i64 %20, 3
  %22 = tail call noalias ptr @malloc(i64 noundef %21) #20
  store ptr %22, ptr %19, align 8, !tbaa !21
  store i32 %17, ptr %18, align 8, !tbaa !18
  %23 = zext nneg i32 %17 to i64
  %24 = shl nuw nsw i64 %23, 3
  tail call void @llvm.memset.p0.i64(ptr align 8 %22, i8 0, i64 %24, i1 false), !tbaa !42
  br label %Vec_WrdFill.exit

Vec_WrdFill.exit:                                 ; preds = %4, %.lr.ph.i
  %.val71 = phi ptr [ %22, %.lr.ph.i ], [ null, %4 ]
  %25 = getelementptr inbounds nuw i8, ptr %5, i64 28
  store i32 %17, ptr %25, align 4, !tbaa !22
  %26 = shl nuw i32 1, %2
  %27 = shl i32 %14, %2
  %.not.i.i48 = icmp sgt i32 %27, 0
  br i1 %.not.i.i48, label %.lr.ph.i50, label %Vec_WrdFill.exit52

.lr.ph.i50:                                       ; preds = %Vec_WrdFill.exit
  %28 = getelementptr inbounds nuw i8, ptr %5, i64 40
  %29 = getelementptr inbounds nuw i8, ptr %5, i64 48
  %30 = zext nneg i32 %27 to i64
  %31 = shl nuw nsw i64 %30, 3
  %32 = tail call noalias ptr @malloc(i64 noundef %31) #20
  store ptr %32, ptr %29, align 8, !tbaa !21
  store i32 %27, ptr %28, align 8, !tbaa !18
  %33 = zext nneg i32 %27 to i64
  %34 = shl nuw nsw i64 %33, 3
  tail call void @llvm.memset.p0.i64(ptr align 8 %32, i8 0, i64 %34, i1 false), !tbaa !42
  br label %Vec_WrdFill.exit52

Vec_WrdFill.exit52:                               ; preds = %Vec_WrdFill.exit, %.lr.ph.i50
  %.val4774 = phi ptr [ %32, %.lr.ph.i50 ], [ null, %Vec_WrdFill.exit ]
  %35 = getelementptr inbounds nuw i8, ptr %5, i64 44
  store i32 %27, ptr %35, align 4, !tbaa !22
  %36 = sext i32 %16 to i64
  %37 = tail call noalias ptr @calloc(i64 noundef %36, i64 noundef 8) #22
  %38 = getelementptr inbounds nuw i8, ptr %5, i64 56
  store ptr %37, ptr %38, align 8, !tbaa !40
  %39 = sext i32 %26 to i64
  %40 = tail call noalias ptr @calloc(i64 noundef %39, i64 noundef 8) #22
  %41 = getelementptr inbounds nuw i8, ptr %5, i64 64
  store ptr %40, ptr %41, align 8, !tbaa !49
  %42 = icmp sgt i32 %7, -100
  br i1 %42, label %.lr.ph, label %.preheader

.lr.ph:                                           ; preds = %Vec_WrdFill.exit52
  %43 = sext i32 %14 to i64
  %smax = tail call i32 @llvm.smax.i32(i32 %16, i32 1)
  %wide.trip.count = zext nneg i32 %smax to i64
  br label %45

.preheader:                                       ; preds = %45, %Vec_WrdFill.exit52
  %.not = icmp eq i32 %2, 31
  br i1 %.not, label %._crit_edge, label %.lr.ph61

.lr.ph61:                                         ; preds = %.preheader
  %44 = sext i32 %14 to i64
  %smax66 = tail call i32 @llvm.smax.i32(i32 %26, i32 1)
  %wide.trip.count67 = zext nneg i32 %smax66 to i64
  br label %49

45:                                               ; preds = %.lr.ph, %45
  %indvars.iv = phi i64 [ 0, %.lr.ph ], [ %indvars.iv.next, %45 ]
  %46 = mul nsw i64 %indvars.iv, %43
  %47 = getelementptr inbounds i64, ptr %.val71, i64 %46
  %48 = getelementptr inbounds nuw ptr, ptr %37, i64 %indvars.iv
  store ptr %47, ptr %48, align 8, !tbaa !41
  %indvars.iv.next = add nuw nsw i64 %indvars.iv, 1
  %exitcond.not = icmp eq i64 %indvars.iv.next, %wide.trip.count
  br i1 %exitcond.not, label %.preheader, label %45, !llvm.loop !57

49:                                               ; preds = %.lr.ph61, %49
  %indvars.iv63 = phi i64 [ 0, %.lr.ph61 ], [ %indvars.iv.next64, %49 ]
  %50 = mul nsw i64 %indvars.iv63, %44
  %51 = getelementptr inbounds i64, ptr %.val4774, i64 %50
  %52 = getelementptr inbounds nuw ptr, ptr %40, i64 %indvars.iv63
  store ptr %51, ptr %52, align 8, !tbaa !41
  %indvars.iv.next64 = add nuw nsw i64 %indvars.iv63, 1
  %exitcond68.not = icmp eq i64 %indvars.iv.next64, %wide.trip.count67
  br i1 %exitcond68.not, label %._crit_edge, label %49, !llvm.loop !58

._crit_edge:                                      ; preds = %49, %.preheader
  %53 = icmp sgt i32 %3, 0
  br i1 %53, label %.lr.ph.preheader.i, label %Abc_TtFill.exit

.lr.ph.preheader.i:                               ; preds = %._crit_edge
  %54 = getelementptr inbounds nuw i8, ptr %37, i64 8
  %55 = load ptr, ptr %54, align 8, !tbaa !41
  %56 = shl nuw nsw i32 %14, 3
  %57 = zext nneg i32 %56 to i64
  tail call void @llvm.memset.p0.i64(ptr align 8 %55, i8 -1, i64 %57, i1 false), !tbaa !42
  br label %Abc_TtFill.exit

Abc_TtFill.exit:                                  ; preds = %._crit_edge, %.lr.ph.preheader.i
  %.not.i = icmp sgt i32 %2, -200
  br i1 %.not.i, label %58, label %Vec_IntGrow.exit58

58:                                               ; preds = %Abc_TtFill.exit
  %59 = add nsw i32 %2, 200
  %60 = getelementptr inbounds nuw i8, ptr %5, i64 72
  %61 = getelementptr inbounds nuw i8, ptr %5, i64 80
  %62 = zext nneg i32 %59 to i64
  %63 = shl nuw nsw i64 %62, 2
  %64 = tail call noalias ptr @malloc(i64 noundef %63) #20
  store ptr %64, ptr %61, align 8, !tbaa !29
  store i32 %59, ptr %60, align 8, !tbaa !28
  %65 = getelementptr inbounds nuw i8, ptr %5, i64 88
  %66 = getelementptr inbounds nuw i8, ptr %5, i64 96
  %67 = zext nneg i32 %59 to i64
  %68 = shl nuw nsw i64 %67, 2
  %69 = tail call noalias ptr @malloc(i64 noundef %68) #20
  store ptr %69, ptr %66, align 8, !tbaa !29
  store i32 %59, ptr %65, align 8, !tbaa !28
  %70 = getelementptr inbounds nuw i8, ptr %5, i64 104
  %71 = getelementptr inbounds nuw i8, ptr %5, i64 112
  %72 = zext nneg i32 %59 to i64
  %73 = shl nuw nsw i64 %72, 2
  %74 = tail call noalias ptr @malloc(i64 noundef %73) #20
  store ptr %74, ptr %71, align 8, !tbaa !29
  store i32 %59, ptr %70, align 8, !tbaa !28
  br label %Vec_IntGrow.exit58

Vec_IntGrow.exit58:                               ; preds = %Abc_TtFill.exit, %58
  ret ptr %5
}